Certificate:
    Data:
        Version: 3 (0x2)
        Serial Number: 1 (0x1)
        Signature Algorithm: sha256WithRSAEncryption
        Issuer: C=US, ST=Maryland, L=Baltimore, O=Test CA, Limited, OU=Server Research Department, CN=Test CA/emailAddress=test@example.com
        Validity
            Not Before: Dec 19 08:53:17 2025 GMT
            Not After : Dec 19 08:53:17 2026 GMT
        Subject: C=US, ST=MD, L=Baltimore, O=Test Server, Limited, CN=Test Server
        Subject Public Key Info:
            Public Key Algorithm: rsaEncryption
                Public-Key: (2048 bit)
                Modulus:
                    00:cb:eb:da:db:a5:69:63:c9:6b:f7:71:c7:c5:a6:
                    87:36:19:ba:0d:6a:5b:c4:f7:41:f2:a3:a2:6f:c4:
                    7b:34:60:68:e8:6d:51:6a:e8:f4:95:a8:b9:5a:b2:
                    c1:53:76:91:a0:47:0e:0d:d2:ba:5b:d5:0f:7a:8d:
                    18:55:bf:48:66:ad:97:39:50:17:e6:35:39:b3:07:
                    c6:b3:a3:68:5e:e1:e8:66:87:c2:ba:f1:38:c5:ca:
                    8e:4f:dd:fe:de:e6:9d:bc:5d:45:90:c5:24:71:16:
                    28:41:e9:b0:a4:61:15:34:da:6c:8a:d2:f1:90:8d:
                    1c:99:f3:81:4e:24:20:38:b8:c0:ff:2e:c3:6c:e6:
                    74:80:85:3f:a0:9a:24:85:bc:01:9e:ef:2f:bf:2b:
                    c1:31:c8:09:10:59:c2:95:2f:9b:7d:2d:4c:7c:21:
                    55:34:a3:c5:c0:a1:7e:54:c7:0e:59:31:5b:d1:ec:
                    28:6b:f1:df:12:52:23:b0:11:e9:1c:37:22:41:bb:
                    e7:02:63:bc:79:ba:73:bf:14:b0:ef:1a:c1:f5:c1:
                    d4:3f:5b:31:3e:3c:23:3f:a0:f0:da:6b:73:a5:3c:
                    16:80:13:9b:95:dd:be:b6:5b:01:0c:13:78:1b:8e:
                    34:7a:a2:6f:c9:98:97:f7:0e:d8:a1:eb:d1:8c:d4:
                    6b:1b
                Exponent: 65537 (0x10001)
        X509v3 extensions:
            X509v3 Subject Key Identifier: 
                8B:93:04:69:47:95:EE:C9:B5:2E:2B:A4:03:78:6F:42:7E:3E:BA:B7
            X509v3 Authority Key Identifier: 
                D3:65:8A:ED:D7:F4:4C:03:AA:41:AC:5D:DA:05:56:AB:1B:EA:1A:EE
            X509v3 Basic Constraints: 
                CA:FALSE
            X509v3 Key Usage: 
                Digital Signature, Key Encipherment
            X509v3 Subject Alternative Name: 
                DNS:localhost, IP Address:127.0.0.1, IP Address:0:0:0:0:0:0:0:1
            Netscape Comment: 
                OpenSSL Generated Certificate
    Signature Algorithm: sha256WithRSAEncryption
    Signature Value:
        80:05:3d:a5:ca:de:57:f3:2f:80:1d:92:25:ae:87:cc:8a:40:
        1e:6c:cc:f1:f6:12:08:5d:c7:19:58:5d:fd:ec:2a:6a:1a:00:
        ac:a1:35:6a:f7:db:f8:99:57:a0:2c:d9:29:0e:d7:3e:2c:e4:
        3d:3a:b9:e0:d9:fd:23:b8:21:25:4f:96:98:d8:48:77:fd:06:
        93:9d:8d:4e:5c:af:4c:bd:c5:d4:b7:5b:1c:7a:1c:11:bd:e8:
        df:69:a9:c6:83:5a:07:aa:e6:47:0f:76:d7:48:6b:c3:5c:56:
        2f:6c:69:14:09:90:6d:a5:71:81:53:41:4f:5b:45:9b:29:74:
        7a:7d:a2:70:49:e4:ba:38:77:aa:70:f2:c6:2d:c5:a4:0f:46:
        6e:a2:b1:0b:33:66:af:64:50:92:e9:b8:92:28:0e:44:25:a4:
        25:70:22:f9:91:b9:75:42:b4:f0:49:a6:b5:1c:31:84:d7:2f:
        af:36:4b:1a:62:7f:c0:43:98:37:df:03:68:a8:b6:2d:9c:b5:
        e4:c5:f3:eb:0c:88:e0:83:5c:60:25:1c:fe:17:69:17:c6:10:
        a8:19:d1:bd:51:a2:aa:22:00:66:c8:b0:0c:0b:59:d6:2f:87:
        37:02:07:7d:36:2d:f7:58:8a:65:99:f9:b4:61:1d:ee:7d:86:
        b6:66:db:a0:8a:9e:6e:cf:40:3e:fc:17:b3:bb:ec:74:62:1c:
        ba:3e:8e:3a:98:5b:85:9b:5b:f4:9c:04:68:4d:03:f5:c3:5a:
        29:a7:a1:93:12:c1:31:bd:68:33:50:af:9b:84:94:ab:0b:48:
        dc:b5:0f:b0:58:85:a1:02:93:60:e0:d7:52:3a:ac:76:2a:60:
        e2:b9:3a:5c:b0:51:68:db:a2:87:d4:20:96:eb:6c:c3:0c:cb:
        29:3e:73:a4:5e:8f:4c:23:d2:df:c2:6d:57:20:d5:5a:8d:f6:
        ef:14:ba:be:3b:e5:44:c1:17:27:ad:f0:aa:21:72:9d:da:25:
        60:3c:8d:2a:d2:d2:cd:8c:f0:1e:1f:67:46:0b:2d:e3:34:c3:
        3f:f4:20:12:73:cd:d8:02:a8:43:bc:f8:55:5b:75:40:84:ca:
        af:52:0b:15:64:95:56:80:9f:e2:57:31:ba:31:89:2e:c0:bb:
        55:d5:a1:5d:97:8e:4f:c7:d4:08:58:3a:d7:58:40:9b:81:96:
        0c:35:34:e9:2d:f0:5c:96:fc:5b:7f:ed:38:46:cb:81:02:f0:
        6d:31:6e:63:98:de:5d:1e:7d:ca:55:ea:38:bb:51:a2:86:35:
        ce:09:d4:e9:9a:7e:91:1c:eb:4b:12:bf:88:73:c7:d6:6c:a1:
        c1:37:85:6e:56:e6:02:dd
-----BEGIN CERTIFICATE-----
MIIFPjCCAyagAwIBAgIBATANBgkqhkiG9w0BAQsFADCBpzELMAkGA1UEBhMCVVMx
ETAPBgNVBAgMCE1hcnlsYW5kMRIwEAYDVQQHDAlCYWx0aW1vcmUxGTAXBgNVBAoM
EFRlc3QgQ0EsIExpbWl0ZWQxIzAhBgNVBAsMGlNlcnZlciBSZXNlYXJjaCBEZXBh
cnRtZW50MRAwDgYDVQQDDAdUZXN0IENBMR8wHQYJKoZIhvcNAQkBFhB0ZXN0QGV4
YW1wbGUuY29tMB4XDTI1MTIxOTA4NTMxN1oXDTI2MTIxOTA4NTMxN1owYzELMAkG
A1UEBhMCVVMxCzAJBgNVBAgMAk1EMRIwEAYDVQQHDAlCYWx0aW1vcmUxHTAbBgNV
BAoMFFRlc3QgU2VydmVyLCBMaW1pdGVkMRQwEgYDVQQDDAtUZXN0IFNlcnZlcjCC
ASIwDQYJKoZIhvcNAQEBBQADggEPADCCAQoCggEBAMvr2tulaWPJa/dxx8WmhzYZ
ug1qW8T3QfKjom/EezRgaOhtUWro9JWouVqywVN2kaBHDg3SulvVD3qNGFW/SGat
lzlQF+Y1ObMHxrOjaF7h6GaHwrrxOMXKjk/d/t7mnbxdRZDFJHEWKEHpsKRhFTTa
bIrS8ZCNHJnzgU4kIDi4wP8uw2zmdICFP6CaJIW8AZ7vL78rwTHICRBZwpUvm30t
THwhVTSjxcChflTHDlkxW9HsKGvx3xJSI7AR6Rw3IkG75wJjvHm6c78UsO8awfXB
1D9bMT48Iz+g8Nprc6U8FoATm5XdvrZbAQwTeBuONHqib8mYl/cO2KHr0YzUaxsC
AwEAAaOBtzCBtDAdBgNVHQ4EFgQUi5MEaUeV7sm1LiukA3hvQn4+urcwHwYDVR0j
BBgwFoAU02WK7df0TAOqQaxd2gVWqxvqGu4wCQYDVR0TBAIwADALBgNVHQ8EBAMC
BaAwLAYDVR0RBCUwI4IJbG9jYWxob3N0hwR/AAABhxAAAAAAAAAAAAAAAAAAAAAB
MCwGCWCGSAGG+EIBDQQfFh1PcGVuU1NMIEdlbmVyYXRlZCBDZXJ0aWZpY2F0ZTAN
BgkqhkiG9w0BAQsFAAOCAgEAgAU9pcreV/MvgB2SJa6HzIpAHmzM8fYSCF3HGVhd
/ewqahoArKE1avfb+JlXoCzZKQ7XPizkPTq54Nn9I7ghJU+WmNhId/0Gk52NTlyv
TL3F1LdbHHocEb3o32mpxoNaB6rmRw9210hrw1xWL2xpFAmQbaVxgVNBT1tFmyl0
en2icEnkujh3qnDyxi3FpA9GbqKxCzNmr2RQkum4kigORCWkJXAi+ZG5dUK08Emm
tRwxhNcvrzZLGmJ/wEOYN98DaKi2LZy15MXz6wyI4INcYCUc/hdpF8YQqBnRvVGi
qiIAZsiwDAtZ1i+HNwIHfTYt91iKZZn5tGEd7n2GtmbboIqebs9APvwXs7vsdGIc
uj6OOphbhZtb9JwEaE0D9cNaKaehkxLBMb1oM1Cvm4SUqwtI3LUPsFiFoQKTYODX
Ujqsdipg4rk6XLBRaNuih9QglutswwzLKT5zpF6PTCPS38JtVyDVWo327xS6vjvl
RMEXJ63wqiFyndolYDyNKtLSzYzwHh9nRgst4zTDP/QgEnPN2AKoQ7z4VVt1QITK
r1ILFWSVVoCf4lcxujGJLsC7VdWhXZeOT8fUCFg611hAm4GWDDU06S3wXJb8W3/t
OEbLgQLwbTFuY5jeXR59ylXqOLtRooY1zgnU6Zp+kRzrSxK/iHPH1myhwTeFblbm
At0=
-----END CERTIFICATE-----
